; Function Attrs: mustprogress uwtable
define void @_ZNK6google8protobuf10TextFormat21FastFieldValuePrinter11PrintStringERKNSt7__cxx1112basic_stringIcSt11char_traitsIcESaIcEEEPNS1_17BaseTextGeneratorE(ptr nocapture nonnull readnone align 8 %this, ptr noundef nonnull align 8 dereferenceable(32) %val, ptr noundef %generator) unnamed_addr #4 align 2 personality ptr @__gxx_personality_v0 {
entry:
  %ref.tmp = alloca %"class.std::__cxx11::basic_string", align 8
  %vtable.i = load ptr, ptr %generator, align 8
  %vfn.i = getelementptr inbounds i8, ptr %vtable.i, i64 40
  %0 = load ptr, ptr %vfn.i, align 8
  tail call void %0(ptr noundef nonnull align 8 dereferenceable(8) %generator, ptr noundef nonnull @.str.6, i64 noundef 1)
  %call = tail call noundef zeroext i1 @_ZNKSt7__cxx1112basic_stringIcSt11char_traitsIcESaIcEE5emptyEv(ptr noundef nonnull align 8 dereferenceable(32) %val) #34
  br i1 %call, label %if.end, label %if.then

if.then:                                          ; preds = %entry
  %call3 = tail call { i64, ptr } @_ZNKSt7__cxx1112basic_stringIcSt11char_traitsIcESaIcEEcvSt17basic_string_viewIcS2_EEv(ptr noundef nonnull align 8 dereferenceable(32) %val) #34
  %1 = extractvalue { i64, ptr } %call3, 0
  %2 = extractvalue { i64, ptr } %call3, 1
  call void @_ZN4absl12lts_202308027CEscapeB5cxx11ESt17basic_string_viewIcSt11char_traitsIcEE(ptr nonnull sret(%"class.std::__cxx11::basic_string") align 8 %ref.tmp, i64 %1, ptr %2)
  %call4 = call { i64, ptr } @_ZNKSt7__cxx1112basic_stringIcSt11char_traitsIcESaIcEEcvSt17basic_string_viewIcS2_EEv(ptr noundef nonnull align 8 dereferenceable(32) %ref.tmp) #34
  %3 = extractvalue { i64, ptr } %call4, 0
  %4 = extractvalue { i64, ptr } %call4, 1
  %vtable.i4 = load ptr, ptr %generator, align 8
  %vfn.i5 = getelementptr inbounds i8, ptr %vtable.i4, i64 40
  %5 = load ptr, ptr %vfn.i5, align 8
  invoke void %5(ptr noundef nonnull align 8 dereferenceable(8) %generator, ptr noundef %4, i64 noundef %3)
          to label %invoke.cont unwind label %lpad

invoke.cont:                                      ; preds = %if.then
  call void @_ZNSt7__cxx1112basic_stringIcSt11char_traitsIcESaIcEED1Ev(ptr noundef nonnull align 8 dereferenceable(32) %ref.tmp) #34
  br label %if.end

lpad:                                             ; preds = %if.then
  %6 = landingpad { ptr, i32 }
          cleanup
  call void @_ZNSt7__cxx1112basic_stringIcSt11char_traitsIcESaIcEED1Ev(ptr noundef nonnull align 8 dereferenceable(32) %ref.tmp) #34
  resume { ptr, i32 } %6

if.end:                                           ; preds = %invoke.cont, %entry
  %vtable.i6 = load ptr, ptr %generator, align 8
  %vfn.i7 = getelementptr inbounds i8, ptr %vtable.i6, i64 40
  %7 = load ptr, ptr %vfn.i7, align 8
  call void %7(ptr noundef nonnull align 8 dereferenceable(8) %generator, ptr noundef nonnull @.str.6, i64 noundef 1)
  ret void
}